; Function Attrs: mustprogress uwtable
define void @_ZN32pxrInternal_v0_24__pxrReserved__11HdSelection9AddPointsERKNS0_13HighlightModeERKNS_7SdfPathERKNS_7VtArrayIiEE(ptr noundef nonnull align 8 dereferenceable(144) %0, ptr nocapture noundef nonnull readonly align 4 dereferenceable(4) %1, ptr noundef nonnull align 4 dereferenceable(8) %2, ptr noundef nonnull align 8 dereferenceable(40) %3) local_unnamed_addr #2 align 2 {
  %5 = alloca %"class.pxrInternal_v0_24__pxrReserved__::TfCallContext", align 8
  %6 = load i32, ptr %1, align 4
  %7 = icmp slt i32 %6, 2
  br i1 %7, label %.critedge, label %8

8:                                                ; preds = %4
  store ptr @.str, ptr %5, align 8
  %9 = getelementptr inbounds nuw i8, ptr %5, i64 8
  store ptr @__func__._ZN32pxrInternal_v0_24__pxrReserved__11HdSelection9AddPointsERKNS0_13HighlightModeERKNS_7SdfPathERKNS_7VtArrayIiEE, ptr %9, align 8
  %10 = getelementptr inbounds nuw i8, ptr %5, i64 16
  store i64 102, ptr %10, align 8
  %11 = getelementptr inbounds nuw i8, ptr %5, i64 24
  store ptr @__PRETTY_FUNCTION__._ZN32pxrInternal_v0_24__pxrReserved__11HdSelection9AddPointsERKNS0_13HighlightModeERKNS_7SdfPathERKNS_7VtArrayIiEE, ptr %11, align 8
  %12 = getelementptr inbounds nuw i8, ptr %5, i64 32
  store i8 0, ptr %12, align 8
  %13 = call noundef zeroext i1 @_ZN32pxrInternal_v0_24__pxrReserved__21Tf_FailedVerifyHelperERKNS_13TfCallContextEPKcS4_(ptr noundef nonnull align 8 dereferenceable(33) %5, ptr noundef nonnull @.str.1, ptr noundef null)
  br i1 %13, label %.critedge, label %14

.critedge:                                        ; preds = %4, %8
  call void @_ZN32pxrInternal_v0_24__pxrReserved__11HdSelection10_AddPointsERKNS0_13HighlightModeERKNS_7SdfPathERKNS_7VtArrayIiEEi(ptr noundef nonnull align 8 dereferenceable(144) %0, ptr noundef nonnull align 4 dereferenceable(4) %1, ptr noundef nonnull align 4 dereferenceable(8) %2, ptr noundef nonnull align 8 dereferenceable(40) %3, i32 noundef -1)
  br label %14

14:                                               ; preds = %8, %.critedge
  ret void
}